; ModuleID = '62/3243.c'
source_filename = "62/3243.c"
target datalayout = "e-m:e-p270:32:32-p271:32:32-p272:64:64-i64:64-f80:128-n8:16:32:64-S128"
target triple = "x86_64-pc-linux-gnu"

; Function Attrs: noinline nounwind uwtable
define dso_local i32 @main() #0 {
  %1 = alloca i32, align 4
  %2 = alloca [500 x i8], align 16
  %3 = alloca [500 x i8], align 16
  %4 = alloca i8, align 1
  %5 = alloca i32, align 4
  %6 = alloca i32, align 4
  store i32 0, i32* %1, align 4
  store i8 0, i8* %4, align 1
  %7 = getelementptr inbounds [500 x i8], [500 x i8]* %2, i64 0, i64 0
  %8 = call i32 (i8*, ...) bitcast (i32 (...)* @gets to i32 (i8*, ...)*)(i8* %7)
  %9 = getelementptr inbounds [500 x i8], [500 x i8]* %2, i64 0, i64 0
  %10 = call i64 @strlen(i8* %9) #3
  %11 = trunc i64 %10 to i32
  store i32 %11, i32* %6, align 4
  store i32 1, i32* %5, align 4
  br label %12

12:                                               ; preds = %54, %0
  %13 = load i32, i32* %5, align 4
  %14 = sext i32 %13 to i64
  %15 = getelementptr inbounds [500 x i8], [500 x i8]* %2, i64 0, i64 %14
  %16 = load i8, i8* %15, align 1
  %17 = sext i8 %16 to i32
  %18 = icmp ne i32 %17, 0
  br i1 %18, label %19, label %57

19:                                               ; preds = %12
  %20 = load i32, i32* %5, align 4
  %21 = sext i32 %20 to i64
  %22 = getelementptr inbounds [500 x i8], [500 x i8]* %2, i64 0, i64 %21
  %23 = load i8, i8* %22, align 1
  %24 = sext i8 %23 to i32
  %25 = icmp ne i32 %24, 32
  br i1 %25, label %26, label %34

26:                                               ; preds = %19
  %27 = load i32, i32* %5, align 4
  %28 = sub nsw i32 %27, 1
  %29 = sext i32 %28 to i64
  %30 = getelementptr inbounds [500 x i8], [500 x i8]* %2, i64 0, i64 %29
  %31 = load i8, i8* %30, align 1
  %32 = sext i8 %31 to i32
  %33 = icmp eq i32 %32, 32
  br i1 %33, label %42, label %34

34:                                               ; preds = %26, %19
  %35 = load i32, i32* %5, align 4
  %36 = sub nsw i32 %35, 1
  %37 = sext i32 %36 to i64
  %38 = getelementptr inbounds [500 x i8], [500 x i8]* %2, i64 0, i64 %37
  %39 = load i8, i8* %38, align 1
  %40 = sext i8 %39 to i32
  %41 = icmp ne i32 %40, 32
  br i1 %41, label %42, label %53

42:                                               ; preds = %34, %26
  %43 = load i32, i32* %5, align 4
  %44 = sub nsw i32 %43, 1
  %45 = sext i32 %44 to i64
  %46 = getelementptr inbounds [500 x i8], [500 x i8]* %2, i64 0, i64 %45
  %47 = load i8, i8* %46, align 1
  %48 = load i8, i8* %4, align 1
  %49 = sext i8 %48 to i64
  %50 = getelementptr inbounds [500 x i8], [500 x i8]* %3, i64 0, i64 %49
  store i8 %47, i8* %50, align 1
  %51 = load i8, i8* %4, align 1
  %52 = add i8 %51, 1
  store i8 %52, i8* %4, align 1
  br label %53

53:                                               ; preds = %42, %34
  br label %54

54:                                               ; preds = %53
  %55 = load i32, i32* %5, align 4
  %56 = add nsw i32 %55, 1
  store i32 %56, i32* %5, align 4
  br label %12

57:                                               ; preds = %12
  %58 = load i32, i32* %6, align 4
  %59 = sub nsw i32 %58, 1
  %60 = sext i32 %59 to i64
  %61 = getelementptr inbounds [500 x i8], [500 x i8]* %2, i64 0, i64 %60
  %62 = load i8, i8* %61, align 1
  %63 = load i8, i8* %4, align 1
  %64 = sext i8 %63 to i64
  %65 = getelementptr inbounds [500 x i8], [500 x i8]* %3, i64 0, i64 %64
  store i8 %62, i8* %65, align 1
  %66 = load i8, i8* %4, align 1
  %67 = sext i8 %66 to i32
  %68 = add nsw i32 %67, 1
  %69 = sext i32 %68 to i64
  %70 = getelementptr inbounds [500 x i8], [500 x i8]* %3, i64 0, i64 %69
  store i8 0, i8* %70, align 1
  %71 = getelementptr inbounds [500 x i8], [500 x i8]* %3, i64 0, i64 0
  %72 = call i32 @puts(i8* %71)
  ret i32 0
}

declare dso_local i32 @gets(...) #1

; Function Attrs: nounwind readonly
declare dso_local i64 @strlen(i8*) #2

declare dso_local i32 @puts(i8*) #1


!llvm.module.flags = !{!0}
!llvm.ident = !{!1}

!0 = !{i32 1, !"wchar_size", i32 4}
!1 = !{!"clang version 10.0.0-4ubuntu1 "}
