; ModuleID = 'source-C-CXX/61/3243.c'
source_filename = "source-C-CXX/61/3243.c"
target datalayout = "e-m:e-p270:32:32-p271:32:32-p272:64:64-i64:64-f80:128-n8:16:32:64-S128"
target triple = "x86_64-pc-linux-gnu"

; Function Attrs: nounwind sspstrong uwtable
define dso_local i32 @main() local_unnamed_addr #0 {
  %1 = alloca [500 x i8], align 16
  %2 = alloca [500 x i8], align 16
  %3 = getelementptr inbounds [500 x i8], [500 x i8]* %1, i64 0, i64 0
  call void @llvm.lifetime.start.p0i8(i64 500, i8* nonnull %3) #5
  %4 = getelementptr inbounds [500 x i8], [500 x i8]* %2, i64 0, i64 0
  call void @llvm.lifetime.start.p0i8(i64 500, i8* nonnull %4) #5
  %5 = call i32 (i8*, ...) bitcast (i32 (...)* @gets to i32 (i8*, ...)*)(i8* nonnull %3) #5
  %6 = call i64 @strlen(i8* noundef nonnull %3) #6
  br label %7

7:                                                ; preds = %26, %0
  %8 = phi i64 [ %28, %26 ], [ 1, %0 ]
  %9 = phi i8 [ %27, %26 ], [ 0, %0 ]
  %10 = getelementptr inbounds [500 x i8], [500 x i8]* %1, i64 0, i64 %8
  %11 = load i8, i8* %10, align 1, !tbaa !5
  switch i8 %11, label %12 [
    i8 0, label %29
    i8 32, label %16
  ]

12:                                               ; preds = %7
  %13 = add nsw i64 %8, -1
  %14 = getelementptr inbounds [500 x i8], [500 x i8]* %1, i64 0, i64 %13
  %15 = load i8, i8* %14, align 1, !tbaa !5
  br label %21

16:                                               ; preds = %7
  %17 = add nsw i64 %8, -1
  %18 = getelementptr inbounds [500 x i8], [500 x i8]* %1, i64 0, i64 %17
  %19 = load i8, i8* %18, align 1, !tbaa !5
  %20 = icmp eq i8 %19, 32
  br i1 %20, label %26, label %21

21:                                               ; preds = %12, %16
  %22 = phi i8 [ %19, %16 ], [ %15, %12 ]
  %23 = sext i8 %9 to i64
  %24 = getelementptr inbounds [500 x i8], [500 x i8]* %2, i64 0, i64 %23
  store i8 %22, i8* %24, align 1, !tbaa !5
  %25 = add i8 %9, 1
  br label %26

26:                                               ; preds = %16, %21
  %27 = phi i8 [ %25, %21 ], [ %9, %16 ]
  %28 = add nuw i64 %8, 1
  br label %7, !llvm.loop !8

29:                                               ; preds = %7
  %30 = shl i64 %6, 32
  %31 = add i64 %30, -4294967296
  %32 = ashr exact i64 %31, 32
  %33 = getelementptr inbounds [500 x i8], [500 x i8]* %1, i64 0, i64 %32
  %34 = load i8, i8* %33, align 1, !tbaa !5
  %35 = sext i8 %9 to i64
  %36 = getelementptr inbounds [500 x i8], [500 x i8]* %2, i64 0, i64 %35
  store i8 %34, i8* %36, align 1, !tbaa !5
  %37 = add nsw i64 %35, 1
  %38 = getelementptr inbounds [500 x i8], [500 x i8]* %2, i64 0, i64 %37
  store i8 0, i8* %38, align 1, !tbaa !5
  %39 = call i32 @puts(i8* nonnull %4)
  call void @llvm.lifetime.end.p0i8(i64 500, i8* nonnull %4) #5
  call void @llvm.lifetime.end.p0i8(i64 500, i8* nonnull %3) #5
  ret i32 0
}

; Function Attrs: argmemonly mustprogress nofree nosync nounwind willreturn
declare void @llvm.lifetime.start.p0i8(i64 immarg, i8* nocapture) #1

declare i32 @gets(...) local_unnamed_addr #2

; Function Attrs: argmemonly mustprogress nofree nounwind readonly willreturn
declare i64 @strlen(i8* nocapture) local_unnamed_addr #3

; Function Attrs: nofree nounwind
declare noundef i32 @puts(i8* nocapture noundef readonly) local_unnamed_addr #4

; Function Attrs: argmemonly mustprogress nofree nosync nounwind willreturn
declare void @llvm.lifetime.end.p0i8(i64 immarg, i8* nocapture) #1


!llvm.module.flags = !{!0, !1, !2, !3}
!llvm.ident = !{!4}

!0 = !{i32 1, !"wchar_size", i32 4}
!1 = !{i32 7, !"PIC Level", i32 2}
!2 = !{i32 7, !"PIE Level", i32 2}
!3 = !{i32 7, !"uwtable", i32 1}
!4 = !{!"clang version 13.0.0"}
!5 = !{!6, !6, i64 0}
!6 = !{!"omnipotent char", !7, i64 0}
!7 = !{!"Simple C/C++ TBAA"}
!8 = distinct !{!8, !9}
!9 = !{!"llvm.loop.mustprogress"}
